; Function Attrs: nounwind uwtable
define internal fastcc void @Abc_NodeConeMarkCollect_rec(ptr noundef %0, ptr noundef %1) unnamed_addr #0 {
  %3 = getelementptr inbounds nuw i8, ptr %0, i64 20
  %4 = load i32, ptr %3, align 4
  %5 = and i32 %4, 16
  %.not = icmp eq i32 %5, 0
  br i1 %.not, label %6, label %55

6:                                                ; preds = %2
  %7 = and i32 %4, 15
  %.not14 = icmp eq i32 %7, 7
  br i1 %.not14, label %8, label %21

8:                                                ; preds = %6
  %.val = load ptr, ptr %0, align 8, !tbaa !16
  %9 = getelementptr i8, ptr %0, i64 32
  %.val10 = load ptr, ptr %9, align 8, !tbaa !22
  %10 = getelementptr i8, ptr %.val, i64 32
  %.val.val = load ptr, ptr %10, align 8, !tbaa !23
  %.val10.val = load i32, ptr %.val10, align 4, !tbaa !36
  %11 = getelementptr i8, ptr %.val.val, i64 8
  %.val.val.val = load ptr, ptr %11, align 8, !tbaa !14
  %12 = sext i32 %.val10.val to i64
  %13 = getelementptr inbounds ptr, ptr %.val.val.val, i64 %12
  %14 = load ptr, ptr %13, align 8, !tbaa !15
  tail call fastcc void @Abc_NodeConeMarkCollect_rec(ptr noundef %14, ptr noundef %1)
  %.val11 = load ptr, ptr %0, align 8, !tbaa !16
  %.val12 = load ptr, ptr %9, align 8, !tbaa !22
  %15 = getelementptr i8, ptr %.val11, i64 32
  %.val11.val = load ptr, ptr %15, align 8, !tbaa !23
  %16 = getelementptr i8, ptr %.val12, i64 4
  %.val12.val = load i32, ptr %16, align 4, !tbaa !36
  %17 = getelementptr i8, ptr %.val11.val, i64 8
  %.val11.val.val = load ptr, ptr %17, align 8, !tbaa !14
  %18 = sext i32 %.val12.val to i64
  %19 = getelementptr inbounds ptr, ptr %.val11.val.val, i64 %18
  %20 = load ptr, ptr %19, align 8, !tbaa !15
  tail call fastcc void @Abc_NodeConeMarkCollect_rec(ptr noundef %20, ptr noundef %1)
  %.pre = load i32, ptr %3, align 4
  br label %21

21:                                               ; preds = %8, %6
  %22 = phi i32 [ %.pre, %8 ], [ %4, %6 ]
  %23 = or i32 %22, 16
  store i32 %23, ptr %3, align 4
  %24 = getelementptr inbounds nuw i8, ptr %1, i64 4
  %25 = load i32, ptr %24, align 4, !tbaa !11
  %26 = load i32, ptr %1, align 8, !tbaa !13
  %27 = icmp eq i32 %25, %26
  br i1 %27, label %28, label %.Vec_PtrGrow.exit11_crit_edge.i

.Vec_PtrGrow.exit11_crit_edge.i:                  ; preds = %21
  %.phi.trans.insert.i = getelementptr inbounds nuw i8, ptr %1, i64 8
  %.pre.i = load ptr, ptr %.phi.trans.insert.i, align 8, !tbaa !14
  br label %Vec_PtrPush.exit

28:                                               ; preds = %21
  %29 = icmp slt i32 %25, 16
  br i1 %29, label %30, label %38

30:                                               ; preds = %28
  %31 = getelementptr inbounds nuw i8, ptr %1, i64 8
  %32 = load ptr, ptr %31, align 8, !tbaa !14
  %.not9.i.i = icmp eq ptr %32, null
  br i1 %.not9.i.i, label %35, label %33

33:                                               ; preds = %30
  %34 = tail call dereferenceable_or_null(128) ptr @realloc(ptr noundef nonnull %32, i64 noundef 128) #11
  br label %Vec_PtrGrow.exit.i

35:                                               ; preds = %30
  %36 = tail call noalias dereferenceable_or_null(128) ptr @malloc(i64 noundef 128) #12
  br label %Vec_PtrGrow.exit.i

Vec_PtrGrow.exit.i:                               ; preds = %35, %33
  %37 = phi ptr [ %34, %33 ], [ %36, %35 ]
  store ptr %37, ptr %31, align 8, !tbaa !14
  store i32 16, ptr %1, align 8, !tbaa !13
  br label %Vec_PtrPush.exit

38:                                               ; preds = %28
  %39 = shl nuw nsw i32 %25, 1
  %40 = getelementptr inbounds nuw i8, ptr %1, i64 8
  %41 = load ptr, ptr %40, align 8, !tbaa !14
  %.not9.i10.i = icmp eq ptr %41, null
  %42 = zext nneg i32 %39 to i64
  %43 = shl nuw nsw i64 %42, 3
  br i1 %.not9.i10.i, label %46, label %44

44:                                               ; preds = %38
  %45 = tail call ptr @realloc(ptr noundef nonnull %41, i64 noundef %43) #11
  br label %48

46:                                               ; preds = %38
  %47 = tail call noalias ptr @malloc(i64 noundef %43) #12
  br label %48

48:                                               ; preds = %46, %44
  %49 = phi ptr [ %45, %44 ], [ %47, %46 ]
  store ptr %49, ptr %40, align 8, !tbaa !14
  store i32 %39, ptr %1, align 8, !tbaa !13
  br label %Vec_PtrPush.exit

Vec_PtrPush.exit:                                 ; preds = %.Vec_PtrGrow.exit11_crit_edge.i, %Vec_PtrGrow.exit.i, %48
  %50 = phi ptr [ %.pre.i, %.Vec_PtrGrow.exit11_crit_edge.i ], [ %49, %48 ], [ %37, %Vec_PtrGrow.exit.i ]
  %51 = load i32, ptr %24, align 4, !tbaa !11
  %52 = add nsw i32 %51, 1
  store i32 %52, ptr %24, align 4, !tbaa !11
  %53 = sext i32 %51 to i64
  %54 = getelementptr inbounds ptr, ptr %50, i64 %53
  store ptr %0, ptr %54, align 8, !tbaa !15
  br label %55

55:                                               ; preds = %2, %Vec_PtrPush.exit
  ret void
}